; Function Attrs: mustprogress nounwind uwtable
define dso_local void @_ZN4llvm14CombinerHelper22applySextTruncSextLoadERNS_12MachineInstrE(ptr nocapture noundef nonnull readonly align 8 dereferenceable(72) %0, ptr noundef nonnull align 8 dereferenceable(70) %1) local_unnamed_addr #0 align 2 {
  %3 = alloca %"class.llvm::DstOp", align 8
  %4 = alloca %"class.llvm::SrcOp", align 8
  %5 = load ptr, ptr %0, align 8
  %6 = getelementptr inbounds nuw i8, ptr %1, i64 32
  %7 = load ptr, ptr %6, align 8
  %8 = getelementptr inbounds nuw i8, ptr %7, i64 4
  %9 = load i32, ptr %8, align 4
  store i32 %9, ptr %3, align 8
  %10 = getelementptr inbounds nuw i8, ptr %3, i64 8
  store i32 1, ptr %10, align 8
  %11 = getelementptr inbounds i8, ptr %7, i64 36
  %12 = load i32, ptr %11, align 4
  store i32 %12, ptr %4, align 8
  %13 = getelementptr inbounds nuw i8, ptr %4, i64 16
  store i32 0, ptr %13, align 8
  %14 = call { ptr, ptr } @_ZN4llvm16MachineIRBuilder9buildCopyERKNS_5DstOpERKNS_5SrcOpE(ptr noundef nonnull align 8 dereferenceable(88) %5, ptr noundef nonnull align 8 dereferenceable(12) %3, ptr noundef nonnull align 8 dereferenceable(20) %4) #27
  call void @_ZN4llvm12MachineInstr15eraseFromParentEv(ptr noundef nonnull align 8 dereferenceable(70) %1) #27
  ret void
}